; Function Attrs: mustprogress nounwind uwtable
define void @_ZN22MeshShaderRenderPlugin8finalizeEP7QActionP12MeshDocumentP6GLArea(ptr nocapture noundef nonnull align 8 dereferenceable(104) %0, ptr nocapture noundef readnone %1, ptr nocapture noundef readnone %2, ptr nocapture noundef readnone %3) unnamed_addr #4 align 2 {
  %5 = getelementptr inbounds i8, ptr %0, i64 96
  %6 = load ptr, ptr %5, align 8
  %7 = icmp eq ptr %6, null
  br i1 %7, label %12, label %8

8:                                                ; preds = %4
  %9 = load ptr, ptr %6, align 8
  %10 = getelementptr inbounds i8, ptr %9, i64 32
  %11 = load ptr, ptr %10, align 8
  tail call void %11(ptr noundef nonnull align 8 dereferenceable(408) %6) #22
  br label %12

12:                                               ; preds = %8, %4
  store ptr null, ptr %5, align 8
  ret void
}